; Function Attrs: mustprogress uwtable
define void @_ZN4pkpy5Frame14jump_abs_breakEPNS_10ValueStackEi(ptr noundef nonnull align 8 captures(none) dereferenceable(56) initializes((4, 8)) %0, ptr noundef captures(none) %1, i32 noundef %2) local_unnamed_addr #5 align 2 personality ptr @__gxx_personality_v0 {
  %4 = getelementptr inbounds nuw i8, ptr %0, i64 16
  %5 = load ptr, ptr %4, align 8
  %6 = getelementptr inbounds nuw i8, ptr %5, i64 72
  %7 = load i32, ptr %0, align 8
  %8 = sext i32 %7 to i64
  %9 = load ptr, ptr %6, align 8
  %10 = getelementptr inbounds i32, ptr %9, i64 %8
  %11 = load i32, ptr %10, align 4
  %12 = getelementptr inbounds nuw i8, ptr %0, i64 4
  store i32 %2, ptr %12, align 4
  %13 = sext i32 %2 to i64
  %14 = getelementptr inbounds nuw i8, ptr %5, i64 48
  %15 = getelementptr inbounds nuw i8, ptr %5, i64 56
  %16 = load ptr, ptr %15, align 8
  %17 = load ptr, ptr %14, align 8
  %18 = ptrtoint ptr %16 to i64
  %19 = ptrtoint ptr %17 to i64
  %20 = sub i64 %18, %19
  %21 = ashr exact i64 %20, 2
  %.not = icmp ugt i64 %21, %13
  br i1 %.not, label %40, label %.preheader

.preheader:                                       ; preds = %3
  %22 = icmp sgt i32 %11, -1
  br i1 %22, label %.lr.ph, label %.loopexit

.lr.ph:                                           ; preds = %.preheader
  %23 = getelementptr inbounds nuw i8, ptr %1, i64 264192
  br label %24

24:                                               ; preds = %.lr.ph, %_ZN4pkpy5Frame11_exit_blockEPNS_10ValueStackEi.exit
  %25 = phi ptr [ %5, %.lr.ph ], [ %35, %_ZN4pkpy5Frame11_exit_blockEPNS_10ValueStackEi.exit ]
  %.020 = phi i32 [ %11, %.lr.ph ], [ %38, %_ZN4pkpy5Frame11_exit_blockEPNS_10ValueStackEi.exit ]
  %26 = getelementptr inbounds nuw i8, ptr %25, i64 304
  %27 = zext nneg i32 %.020 to i64
  %28 = load ptr, ptr %26, align 8
  %29 = getelementptr inbounds nuw %"struct.pkpy::CodeBlock", ptr %28, i64 %27
  %30 = load i32, ptr %29, align 4
  %31 = and i32 %30, -3
  %or.cond.i = icmp eq i32 %31, 1
  br i1 %or.cond.i, label %32, label %_ZN4pkpy5Frame11_exit_blockEPNS_10ValueStackEi.exit

32:                                               ; preds = %24
  %33 = load ptr, ptr %23, align 8
  %34 = getelementptr inbounds i8, ptr %33, i64 -8
  store ptr %34, ptr %23, align 8
  %.pre.i = load ptr, ptr %4, align 8
  %.phi.trans.insert.i = getelementptr inbounds nuw i8, ptr %.pre.i, i64 304
  %.pre6.i = load ptr, ptr %.phi.trans.insert.i, align 8
  br label %_ZN4pkpy5Frame11_exit_blockEPNS_10ValueStackEi.exit

_ZN4pkpy5Frame11_exit_blockEPNS_10ValueStackEi.exit: ; preds = %24, %32
  %35 = phi ptr [ %25, %24 ], [ %.pre.i, %32 ]
  %36 = phi ptr [ %28, %24 ], [ %.pre6.i, %32 ]
  %37 = getelementptr inbounds nuw %"struct.pkpy::CodeBlock", ptr %36, i64 %27, i32 1
  %38 = load i32, ptr %37, align 4
  %39 = icmp sgt i32 %38, -1
  br i1 %39, label %24, label %.loopexit, !llvm.loop !15

40:                                               ; preds = %3
  %41 = load ptr, ptr %6, align 8
  %42 = getelementptr inbounds i32, ptr %41, i64 %13
  %43 = load i32, ptr %42, align 4
  %44 = icmp sgt i32 %11, -1
  %45 = icmp ne i32 %11, %43
  %46 = select i1 %44, i1 %45, i1 false
  br i1 %46, label %.lr.ph22, label %._crit_edge

.lr.ph22:                                         ; preds = %40
  %47 = getelementptr inbounds nuw i8, ptr %1, i64 264192
  br label %48

48:                                               ; preds = %.lr.ph22, %_ZN4pkpy5Frame11_exit_blockEPNS_10ValueStackEi.exit19
  %49 = phi ptr [ %5, %.lr.ph22 ], [ %59, %_ZN4pkpy5Frame11_exit_blockEPNS_10ValueStackEi.exit19 ]
  %.121 = phi i32 [ %11, %.lr.ph22 ], [ %62, %_ZN4pkpy5Frame11_exit_blockEPNS_10ValueStackEi.exit19 ]
  %50 = getelementptr inbounds nuw i8, ptr %49, i64 304
  %51 = zext nneg i32 %.121 to i64
  %52 = load ptr, ptr %50, align 8
  %53 = getelementptr inbounds nuw %"struct.pkpy::CodeBlock", ptr %52, i64 %51
  %54 = load i32, ptr %53, align 4
  %55 = and i32 %54, -3
  %or.cond.i15 = icmp eq i32 %55, 1
  br i1 %or.cond.i15, label %56, label %_ZN4pkpy5Frame11_exit_blockEPNS_10ValueStackEi.exit19

56:                                               ; preds = %48
  %57 = load ptr, ptr %47, align 8
  %58 = getelementptr inbounds i8, ptr %57, i64 -8
  store ptr %58, ptr %47, align 8
  %.pre.i16 = load ptr, ptr %4, align 8
  %.phi.trans.insert.i17 = getelementptr inbounds nuw i8, ptr %.pre.i16, i64 304
  %.pre6.i18 = load ptr, ptr %.phi.trans.insert.i17, align 8
  br label %_ZN4pkpy5Frame11_exit_blockEPNS_10ValueStackEi.exit19

_ZN4pkpy5Frame11_exit_blockEPNS_10ValueStackEi.exit19: ; preds = %48, %56
  %59 = phi ptr [ %49, %48 ], [ %.pre.i16, %56 ]
  %60 = phi ptr [ %52, %48 ], [ %.pre6.i18, %56 ]
  %61 = getelementptr inbounds nuw %"struct.pkpy::CodeBlock", ptr %60, i64 %51, i32 1
  %62 = load i32, ptr %61, align 4
  %63 = icmp sgt i32 %62, -1
  %64 = icmp ne i32 %62, %43
  %65 = select i1 %63, i1 %64, i1 false
  br i1 %65, label %48, label %._crit_edge, !llvm.loop !16

._crit_edge:                                      ; preds = %_ZN4pkpy5Frame11_exit_blockEPNS_10ValueStackEi.exit19, %40
  %.lcssa = phi i1 [ %45, %40 ], [ %64, %_ZN4pkpy5Frame11_exit_blockEPNS_10ValueStackEi.exit19 ]
  br i1 %.lcssa, label %66, label %.loopexit

66:                                               ; preds = %._crit_edge
  %67 = tail call ptr @__cxa_allocate_exception(i64 16) #23
  invoke void @_ZNSt13runtime_errorC1EPKc(ptr noundef nonnull align 8 dereferenceable(16) %67, ptr noundef nonnull @.str.1)
          to label %68 unwind label %69

68:                                               ; preds = %66
  tail call void @__cxa_throw(ptr nonnull %67, ptr nonnull @_ZTISt13runtime_error, ptr nonnull @_ZNSt13runtime_errorD1Ev) #24
  unreachable

69:                                               ; preds = %66
  %70 = landingpad { ptr, i32 }
          cleanup
  tail call void @__cxa_free_exception(ptr nonnull %67) #23
  resume { ptr, i32 } %70

.loopexit:                                        ; preds = %_ZN4pkpy5Frame11_exit_blockEPNS_10ValueStackEi.exit, %.preheader, %._crit_edge
  ret void
}